target datalayout = "e-m:e-p270:32:32-p271:32:32-p272:64:64-i64:64-i128:128-f80:128-n8:16:32:64-S128"
target triple = "x86_64-pc-linux-gnu"

%struct.TabList = type { [32 x %struct.Tab], i32, i32, i32 }
%struct.Tab = type { ptr, i64 }
%struct.VVCFrameContext = type { ptr, [17 x %struct.VVCFrame], ptr, ptr, %struct.VVCFrameParamSets, ptr, i32, i32, ptr, %struct.VVCDSPContext, %struct.VideoDSPContext, ptr, i64, ptr, ptr, ptr, ptr, %struct.anon }
%struct.VVCFrame = type { ptr, ptr, ptr, ptr, ptr, ptr, i32, i32, i32, %struct.VVCWindow, i32, i32, ptr, ptr, i16, i8, ptr }
%struct.VVCWindow = type { i16, i16, i16, i16 }
%struct.VVCFrameParamSets = type { ptr, ptr, %struct.VVCPH, [8 x ptr], %struct.VVCLMCS, ptr }
%struct.VVCPH = type { ptr, ptr, i32, i32, i8, [3 x i16], i8, [3 x i16], %struct.PredWeightTable }
%struct.PredWeightTable = type { [2 x i8], [2 x i8], [2 x [2 x [15 x i8]]], [2 x [3 x [15 x i16]]], [2 x [3 x [15 x i16]]] }
%struct.VVCLMCS = type { i8, i8, %union.anon.0, %union.anon.0, [17 x i16], [16 x i16] }
%union.anon.0 = type { [4096 x i16] }
%struct.VVCDSPContext = type { %struct.VVCInterDSPContext, %struct.VVCIntraDSPContext, %struct.VVCItxDSPContext, %struct.VVCLMCSDSPContext, %struct.VVCLFDSPContext, %struct.VVCSAODSPContext, %struct.VVCALFDSPContext }
%struct.VVCInterDSPContext = type { [2 x [7 x [2 x [2 x ptr]]]], [2 x [7 x [2 x [2 x ptr]]]], [2 x [7 x [2 x [2 x ptr]]]], [2 x [7 x ptr]], [2 x [7 x ptr]], [2 x [7 x ptr]], ptr, ptr, ptr, ptr, ptr, ptr, ptr, ptr, ptr, ptr, ptr, [2 x [2 x ptr]] }
%struct.VVCIntraDSPContext = type { ptr, ptr, ptr, ptr, ptr, ptr, ptr, ptr, ptr, ptr }
%struct.VVCItxDSPContext = type { ptr, ptr, [3 x [6 x ptr]], ptr, ptr }
%struct.VVCLMCSDSPContext = type { ptr }
%struct.VVCLFDSPContext = type { [2 x ptr], [2 x ptr], [2 x ptr] }
%struct.VVCSAODSPContext = type { [9 x ptr], [9 x ptr], [2 x ptr] }
%struct.VVCALFDSPContext = type { [2 x ptr], ptr, ptr, ptr }
%struct.VideoDSPContext = type { ptr, ptr }
%struct.anon = type { ptr, ptr, ptr, ptr, [2 x ptr], [2 x ptr], [2 x ptr], [2 x ptr], [2 x ptr], [3 x ptr], ptr, ptr, [2 x ptr], ptr, ptr, [2 x ptr], ptr, ptr, ptr, [2 x ptr], ptr, [3 x ptr], ptr, [2 x ptr], [2 x ptr], [2 x ptr], [2 x [3 x ptr]], [2 x ptr], [2 x ptr], [3 x ptr], [3 x ptr], [3 x [2 x ptr]], [3 x [2 x ptr]], ptr, ptr, ptr, [3 x ptr], %struct.anon.1 }
%struct.anon.1 = type { i32, i32, i32, i32, i32, i32, i32, i32, i32, i32, i32, i32 }
%struct.VVCPPS = type { ptr, [3 x i8], [6 x [3 x i8]], i16, i16, [1000 x i16], [1000 x i16], i16, i16, i16, i16, i32, i16, i16, i16, i16, ptr, ptr, ptr, ptr, ptr, i16, i16, i16, i16, i16, [1000 x i16], [1000 x i16], [1000 x i16], [1000 x i16] }

@.str.2 = private unnamed_addr constant [30 x i8] c"Assertion %s failed at %s:%d\0A\00", align 1
@.str.3 = private unnamed_addr constant [16 x i8] c"l->nb_tabs < 32\00", align 1
@.str.4 = private unnamed_addr constant [21 x i8] c"libavcodec/vvc/dec.c\00", align 1

; Function Attrs: nounwind uwtable
define internal void @tl_init(ptr noundef %0, i32 noundef %1, i32 noundef %2) #0 {
  %4 = alloca ptr, align 8
  %5 = alloca i32, align 4
  %6 = alloca i32, align 4
  store ptr %0, ptr %4, align 8, !tbaa !14
  store i32 %1, ptr %5, align 4, !tbaa !10
  store i32 %2, ptr %6, align 4, !tbaa !10
  %7 = load ptr, ptr %4, align 8, !tbaa !14
  %8 = getelementptr inbounds nuw %struct.TabList, ptr %7, i32 0, i32 1
  store i32 0, ptr %8, align 8, !tbaa !18
  %9 = load i32, ptr %5, align 4, !tbaa !10
  %10 = load ptr, ptr %4, align 8, !tbaa !14
  %11 = getelementptr inbounds nuw %struct.TabList, ptr %10, i32 0, i32 2
  store i32 %9, ptr %11, align 4, !tbaa !16
  %12 = load i32, ptr %6, align 4, !tbaa !10
  %13 = load ptr, ptr %4, align 8, !tbaa !14
  %14 = getelementptr inbounds nuw %struct.TabList, ptr %13, i32 0, i32 3
  store i32 %12, ptr %14, align 8, !tbaa !173
  ret void
}

; Function Attrs: nounwind uwtable
define internal void @min_cb_tl_init(ptr noundef %0, ptr noundef %1) #0 {
  %3 = alloca ptr, align 8
  %4 = alloca ptr, align 8
  %5 = alloca ptr, align 8
  %6 = alloca i32, align 4
  %7 = alloca i32, align 4
  %8 = alloca i32, align 4
  store ptr %0, ptr %3, align 8, !tbaa !14
  store ptr %1, ptr %4, align 8, !tbaa !4
  call void @llvm.lifetime.start.p0(i64 8, ptr %5) #9
  %9 = load ptr, ptr %4, align 8, !tbaa !4
  %10 = getelementptr inbounds nuw %struct.VVCFrameContext, ptr %9, i32 0, i32 4
  %11 = getelementptr inbounds nuw %struct.VVCFrameParamSets, ptr %10, i32 0, i32 1
  %12 = load ptr, ptr %11, align 8, !tbaa !115
  store ptr %12, ptr %5, align 8, !tbaa !116
  call void @llvm.lifetime.start.p0(i64 4, ptr %6) #9
  %13 = load ptr, ptr %5, align 8, !tbaa !116
  %14 = icmp ne ptr %13, null
  br i1 %14, label %15, label %25

15:                                               ; preds = %2
  %16 = load ptr, ptr %5, align 8, !tbaa !116
  %17 = getelementptr inbounds nuw %struct.VVCPPS, ptr %16, i32 0, i32 7
  %18 = load i16, ptr %17, align 2, !tbaa !125
  %19 = zext i16 %18 to i32
  %20 = load ptr, ptr %5, align 8, !tbaa !116
  %21 = getelementptr inbounds nuw %struct.VVCPPS, ptr %20, i32 0, i32 8
  %22 = load i16, ptr %21, align 4, !tbaa !126
  %23 = zext i16 %22 to i32
  %24 = mul nsw i32 %19, %23
  br label %26

25:                                               ; preds = %2
  br label %26

26:                                               ; preds = %25, %15
  %27 = phi i32 [ %24, %15 ], [ 0, %25 ]
  store i32 %27, ptr %6, align 4, !tbaa !10
  call void @llvm.lifetime.start.p0(i64 4, ptr %7) #9
  %28 = load ptr, ptr %4, align 8, !tbaa !4
  %29 = getelementptr inbounds nuw %struct.VVCFrameContext, ptr %28, i32 0, i32 17
  %30 = getelementptr inbounds nuw %struct.anon, ptr %29, i32 0, i32 37
  %31 = getelementptr inbounds nuw %struct.anon.1, ptr %30, i32 0, i32 2
  %32 = load i32, ptr %31, align 8, !tbaa !127
  %33 = load i32, ptr %6, align 4, !tbaa !10
  %34 = icmp ne i32 %32, %33
  %35 = zext i1 %34 to i32
  store i32 %35, ptr %7, align 4, !tbaa !10
  %36 = load ptr, ptr %3, align 8, !tbaa !14
  %37 = load i32, ptr %7, align 4, !tbaa !10
  call void @tl_init(ptr noundef %36, i32 noundef 1, i32 noundef %37)
  br label %38

38:                                               ; preds = %26
  br label %39

39:                                               ; preds = %38
  %40 = load ptr, ptr %3, align 8, !tbaa !14
  %41 = getelementptr inbounds nuw %struct.TabList, ptr %40, i32 0, i32 1
  %42 = load i32, ptr %41, align 8, !tbaa !18
  %43 = icmp slt i32 %42, 32
  br i1 %43, label %45, label %44

44:                                               ; preds = %39
  call void (ptr, i32, ptr, ...) @av_log(ptr noundef null, i32 noundef 0, ptr noundef @.str.2, ptr noundef @.str.3, ptr noundef @.str.4, i32 noundef 130)
  call void @abort() #11
  unreachable

45:                                               ; preds = %39
  br label %46

46:                                               ; preds = %45
  br label %47

47:                                               ; preds = %46
  %48 = load ptr, ptr %4, align 8, !tbaa !4
  %49 = getelementptr inbounds nuw %struct.VVCFrameContext, ptr %48, i32 0, i32 17
  %50 = getelementptr inbounds nuw %struct.anon, ptr %49, i32 0, i32 13
  %51 = load ptr, ptr %3, align 8, !tbaa !14
  %52 = getelementptr inbounds nuw %struct.TabList, ptr %51, i32 0, i32 0
  %53 = load ptr, ptr %3, align 8, !tbaa !14
  %54 = getelementptr inbounds nuw %struct.TabList, ptr %53, i32 0, i32 1
  %55 = load i32, ptr %54, align 8, !tbaa !18
  %56 = sext i32 %55 to i64
  %57 = getelementptr inbounds [32 x %struct.Tab], ptr %52, i64 0, i64 %56
  %58 = getelementptr inbounds nuw %struct.Tab, ptr %57, i32 0, i32 0
  store ptr %50, ptr %58, align 8, !tbaa !21
  %59 = load i32, ptr %6, align 4, !tbaa !10
  %60 = sext i32 %59 to i64
  %61 = mul i64 1, %60
  %62 = load ptr, ptr %3, align 8, !tbaa !14
  %63 = getelementptr inbounds nuw %struct.TabList, ptr %62, i32 0, i32 0
  %64 = load ptr, ptr %3, align 8, !tbaa !14
  %65 = getelementptr inbounds nuw %struct.TabList, ptr %64, i32 0, i32 1
  %66 = load i32, ptr %65, align 8, !tbaa !18
  %67 = sext i32 %66 to i64
  %68 = getelementptr inbounds [32 x %struct.Tab], ptr %63, i64 0, i64 %67
  %69 = getelementptr inbounds nuw %struct.Tab, ptr %68, i32 0, i32 1
  store i64 %61, ptr %69, align 8, !tbaa !25
  %70 = load ptr, ptr %3, align 8, !tbaa !14
  %71 = getelementptr inbounds nuw %struct.TabList, ptr %70, i32 0, i32 1
  %72 = load i32, ptr %71, align 8, !tbaa !18
  %73 = add nsw i32 %72, 1
  store i32 %73, ptr %71, align 8, !tbaa !18
  br label %74

74:                                               ; preds = %47
  br label %75

75:                                               ; preds = %74
  call void @llvm.lifetime.start.p0(i64 4, ptr %8) #9
  store i32 0, ptr %8, align 4, !tbaa !10
  br label %76

76:                                               ; preds = %122, %75
  %77 = load i32, ptr %8, align 4, !tbaa !10
  %78 = icmp sle i32 %77, 1
  br i1 %78, label %80, label %79

79:                                               ; preds = %76
  call void @llvm.lifetime.end.p0(i64 4, ptr %8) #9
  br label %125

80:                                               ; preds = %76
  br label %81

81:                                               ; preds = %80
  br label %82

82:                                               ; preds = %81
  %83 = load ptr, ptr %3, align 8, !tbaa !14
  %84 = getelementptr inbounds nuw %struct.TabList, ptr %83, i32 0, i32 1
  %85 = load i32, ptr %84, align 8, !tbaa !18
  %86 = icmp slt i32 %85, 32
  br i1 %86, label %88, label %87

87:                                               ; preds = %82
  call void (ptr, i32, ptr, ...) @av_log(ptr noundef null, i32 noundef 0, ptr noundef @.str.2, ptr noundef @.str.3, ptr noundef @.str.4, i32 noundef 133)
  call void @abort() #11
  unreachable

88:                                               ; preds = %82
  br label %89

89:                                               ; preds = %88
  br label %90

90:                                               ; preds = %89
  %91 = load ptr, ptr %4, align 8, !tbaa !4
  %92 = getelementptr inbounds nuw %struct.VVCFrameContext, ptr %91, i32 0, i32 17
  %93 = getelementptr inbounds nuw %struct.anon, ptr %92, i32 0, i32 6
  %94 = load i32, ptr %8, align 4, !tbaa !10
  %95 = sext i32 %94 to i64
  %96 = getelementptr inbounds [2 x ptr], ptr %93, i64 0, i64 %95
  %97 = load ptr, ptr %3, align 8, !tbaa !14
  %98 = getelementptr inbounds nuw %struct.TabList, ptr %97, i32 0, i32 0
  %99 = load ptr, ptr %3, align 8, !tbaa !14
  %100 = getelementptr inbounds nuw %struct.TabList, ptr %99, i32 0, i32 1
  %101 = load i32, ptr %100, align 8, !tbaa !18
  %102 = sext i32 %101 to i64
  %103 = getelementptr inbounds [32 x %struct.Tab], ptr %98, i64 0, i64 %102
  %104 = getelementptr inbounds nuw %struct.Tab, ptr %103, i32 0, i32 0
  store ptr %96, ptr %104, align 8, !tbaa !21
  %105 = load i32, ptr %6, align 4, !tbaa !10
  %106 = sext i32 %105 to i64
  %107 = mul i64 1, %106
  %108 = load ptr, ptr %3, align 8, !tbaa !14
  %109 = getelementptr inbounds nuw %struct.TabList, ptr %108, i32 0, i32 0
  %110 = load ptr, ptr %3, align 8, !tbaa !14
  %111 = getelementptr inbounds nuw %struct.TabList, ptr %110, i32 0, i32 1
  %112 = load i32, ptr %111, align 8, !tbaa !18
  %113 = sext i32 %112 to i64
  %114 = getelementptr inbounds [32 x %struct.Tab], ptr %109, i64 0, i64 %113
  %115 = getelementptr inbounds nuw %struct.Tab, ptr %114, i32 0, i32 1
  store i64 %107, ptr %115, align 8, !tbaa !25
  %116 = load ptr, ptr %3, align 8, !tbaa !14
  %117 = getelementptr inbounds nuw %struct.TabList, ptr %116, i32 0, i32 1
  %118 = load i32, ptr %117, align 8, !tbaa !18
  %119 = add nsw i32 %118, 1
  store i32 %119, ptr %117, align 8, !tbaa !18
  br label %120

120:                                              ; preds = %90
  br label %121

121:                                              ; preds = %120
  br label %122

122:                                              ; preds = %121
  %123 = load i32, ptr %8, align 4, !tbaa !10
  %124 = add nsw i32 %123, 1
  store i32 %124, ptr %8, align 4, !tbaa !10
  br label %76, !llvm.loop !128

125:                                              ; preds = %79
  call void @llvm.lifetime.end.p0(i64 4, ptr %7) #9
  call void @llvm.lifetime.end.p0(i64 4, ptr %6) #9
  call void @llvm.lifetime.end.p0(i64 8, ptr %5) #9
  ret void
}