; Function Attrs: nofree norecurse nosync nounwind memory(read, argmem: readwrite, inaccessiblemem: none) uwtable
define internal void @min_cb_tl_init(ptr noundef writeonly captures(none) initializes((0, 16), (516, 524)) %0, ptr noundef %1) #4 {
  %3 = getelementptr inbounds nuw i8, ptr %1, i64 1936
  %4 = load ptr, ptr %3, align 8, !tbaa !158
  %.not = icmp eq ptr %4, null
  br i1 %.not, label %13, label %5

5:                                                ; preds = %2
  %6 = getelementptr inbounds nuw i8, ptr %4, i64 4034
  %7 = load i16, ptr %6, align 2, !tbaa !178
  %8 = zext i16 %7 to i32
  %9 = getelementptr inbounds nuw i8, ptr %4, i64 4036
  %10 = load i16, ptr %9, align 4, !tbaa !179
  %11 = zext i16 %10 to i32
  %12 = mul nuw nsw i32 %11, %8
  br label %13

13:                                               ; preds = %5, %2
  %14 = phi i32 [ %12, %5 ], [ 0, %2 ]
  %15 = getelementptr inbounds nuw i8, ptr %1, i64 21944
  %16 = load i32, ptr %15, align 8, !tbaa !180
  %17 = icmp ne i32 %16, %14
  %18 = zext i1 %17 to i32
  %19 = getelementptr inbounds nuw i8, ptr %0, i64 516
  store i32 1, ptr %19, align 4, !tbaa !10
  %20 = getelementptr inbounds nuw i8, ptr %0, i64 520
  store i32 %18, ptr %20, align 8, !tbaa !167
  %21 = getelementptr inbounds nuw i8, ptr %1, i64 21504
  store ptr %21, ptr %0, align 8, !tbaa !13
  %22 = zext nneg i32 %14 to i64
  %23 = getelementptr inbounds nuw i8, ptr %0, i64 8
  store i64 %22, ptr %23, align 8, !tbaa !17
  %24 = getelementptr inbounds nuw i8, ptr %1, i64 21400
  br label %28

25:                                               ; preds = %28
  %26 = trunc nuw nsw i64 %indvars.iv.next31 to i32
  %27 = getelementptr inbounds nuw i8, ptr %0, i64 512
  store i32 %26, ptr %27, align 8, !tbaa !18
  ret void

28:                                               ; preds = %28, %13
  %indvars.iv30 = phi i64 [ 1, %13 ], [ %indvars.iv.next31, %28 ]
  %29 = phi i1 [ true, %13 ], [ false, %28 ]
  %indvars.iv = phi i64 [ 0, %13 ], [ 1, %28 ]
  %30 = getelementptr inbounds nuw [2 x ptr], ptr %24, i64 0, i64 %indvars.iv
  %31 = getelementptr inbounds nuw [32 x %struct.Tab], ptr %0, i64 0, i64 %indvars.iv30
  store ptr %30, ptr %31, align 8, !tbaa !13
  %32 = getelementptr inbounds nuw [32 x %struct.Tab], ptr %0, i64 0, i64 %indvars.iv30, i32 1
  store i64 %22, ptr %32, align 8, !tbaa !17
  %indvars.iv.next31 = add nuw nsw i64 %indvars.iv30, 1
  br i1 %29, label %28, label %25, !llvm.loop !274
}